; Function Attrs: nounwind uwtable
define range(i32 0, 4) i32 @tls_process_end_of_early_data(ptr noundef %0, ptr noundef readonly captures(none) %1) local_unnamed_addr #1 {
  %3 = getelementptr i8, ptr %1, i64 8
  %.val = load i64, ptr %3, align 8, !tbaa !220
  %.not = icmp eq i64 %.val, 0
  br i1 %.not, label %5, label %4

4:                                                ; preds = %2
  tail call void @ERR_new() #12
  tail call void @ERR_set_debug(ptr noundef nonnull @.str.1, i32 noundef 4382, ptr noundef nonnull @__func__.tls_process_end_of_early_data) #12
  tail call void (ptr, i32, i32, ptr, ...) @ossl_statem_fatal(ptr noundef %0, i32 noundef 50, i32 noundef 159, ptr noundef null) #12
  br label %22

5:                                                ; preds = %2
  %6 = getelementptr inbounds nuw i8, ptr %0, i64 240
  %7 = load i32, ptr %6, align 8, !tbaa !84
  %8 = and i32 %7, -2
  %switch = icmp eq i32 %8, 10
  br i1 %switch, label %10, label %9

9:                                                ; preds = %5
  tail call void @ERR_new() #12
  tail call void @ERR_set_debug(ptr noundef nonnull @.str.1, i32 noundef 4388, ptr noundef nonnull @__func__.tls_process_end_of_early_data) #12
  tail call void (ptr, i32, i32, ptr, ...) @ossl_statem_fatal(ptr noundef nonnull %0, i32 noundef 80, i32 noundef 786691, ptr noundef null) #12
  br label %22

10:                                               ; preds = %5
  %11 = getelementptr inbounds nuw i8, ptr %0, i64 3160
  %12 = tail call i32 @RECORD_LAYER_processed_read_pending(ptr noundef nonnull %11) #12
  %.not13 = icmp eq i32 %12, 0
  br i1 %.not13, label %14, label %13

13:                                               ; preds = %10
  tail call void @ERR_new() #12
  tail call void @ERR_set_debug(ptr noundef nonnull @.str.1, i32 noundef 4397, ptr noundef nonnull @__func__.tls_process_end_of_early_data) #12
  tail call void (ptr, i32, i32, ptr, ...) @ossl_statem_fatal(ptr noundef nonnull %0, i32 noundef 10, i32 noundef 182, ptr noundef null) #12
  br label %22

14:                                               ; preds = %10
  store i32 12, ptr %6, align 8, !tbaa !84
  %15 = getelementptr inbounds nuw i8, ptr %0, i64 24
  %16 = load ptr, ptr %15, align 8, !tbaa !3
  %17 = getelementptr inbounds nuw i8, ptr %16, i64 216
  %18 = load ptr, ptr %17, align 8, !tbaa !69
  %19 = getelementptr inbounds nuw i8, ptr %18, i64 16
  %20 = load ptr, ptr %19, align 8, !tbaa !128
  %21 = tail call i32 %20(ptr noundef nonnull %0, i32 noundef 161) #12
  %.not14 = icmp eq i32 %21, 0
  %. = select i1 %.not14, i32 0, i32 3
  br label %22

22:                                               ; preds = %14, %13, %9, %4
  %.0 = phi i32 [ 0, %4 ], [ 0, %9 ], [ 0, %13 ], [ %., %14 ]
  ret i32 %.0
}